; Function Attrs: nounwind uwtable
define ptr @mriStep_GetLmem(ptr noundef %0) #0 {
  %2 = getelementptr inbounds nuw i8, ptr %0, i64 136
  %3 = load ptr, ptr %2, align 8, !tbaa !71
  %4 = icmp eq ptr %3, null
  br i1 %4, label %mriStep_AccessStepMem.exit, label %5

mriStep_AccessStepMem.exit:                       ; preds = %1
  tail call void (ptr, i32, i32, ptr, ptr, ptr, ...) @arkProcessError(ptr noundef nonnull %0, i32 noundef -21, i32 noundef 3097, ptr noundef nonnull @__func__.mriStep_GetLmem, ptr noundef nonnull @.str, ptr noundef nonnull @.str.75) #14
  br label %8

5:                                                ; preds = %1
  %6 = getelementptr inbounds nuw i8, ptr %3, i64 352
  %7 = load ptr, ptr %6, align 8, !tbaa !112
  br label %8

8:                                                ; preds = %mriStep_AccessStepMem.exit, %5
  %.0 = phi ptr [ %7, %5 ], [ null, %mriStep_AccessStepMem.exit ]
  ret ptr %.0
}